; Function Attrs: mustprogress uwtable
define dso_local void @_ZNK4base9Histogram16WriteAsciiHeaderERKNS_12SampleVectorEiPNSt7__cxx1112basic_stringIcSt11char_traitsIcESaIcEEE(ptr noundef nonnull align 8 dereferenceable(81) %this, ptr nocapture noundef nonnull readonly align 8 dereferenceable(88) %samples, i32 noundef %sample_count, ptr noundef %output) local_unnamed_addr #0 align 2 personality ptr @__gxx_personality_v0 {
entry:
  %histogram_name_.i = getelementptr inbounds i8, ptr %this, i64 8
  %call2 = tail call noundef ptr @_ZNKSt7__cxx1112basic_stringIcSt11char_traitsIcESaIcEE5c_strEv(ptr noundef nonnull align 8 dereferenceable(32) %histogram_name_.i) #19
  tail call void (ptr, ptr, ...) @_ZN4base13StringAppendFEPNSt7__cxx1112basic_stringIcSt11char_traitsIcESaIcEEEPKcz(ptr noundef %output, ptr noundef nonnull @.str.8, ptr noundef %call2, i32 noundef %sample_count)
  %cmp = icmp eq i32 %sample_count, 0
  br i1 %cmp, label %if.end11, label %if.else7

if.else7:                                         ; preds = %entry
  %meta_.i = getelementptr inbounds i8, ptr %samples, i64 32
  %0 = load ptr, ptr %meta_.i, align 8
  %sum.i = getelementptr inbounds i8, ptr %0, i64 8
  %1 = load atomic volatile i64, ptr %sum.i monotonic, align 8
  %conv = sitofp i64 %1 to float
  %conv9 = sitofp i32 %sample_count to float
  %div = fdiv float %conv, %conv9
  %conv10 = fpext float %div to double
  tail call void (ptr, ptr, ...) @_ZN4base13StringAppendFEPNSt7__cxx1112basic_stringIcSt11char_traitsIcESaIcEEEPKcz(ptr noundef %output, ptr noundef nonnull @.str.9, double noundef %conv10)
  br label %if.end11

if.end11:                                         ; preds = %entry, %if.else7
  %flags_.i = getelementptr inbounds i8, ptr %this, i64 40
  %2 = load atomic volatile i32, ptr %flags_.i monotonic, align 8
  %and = and i32 %2, -32769
  %tobool.not = icmp eq i32 %and, 0
  br i1 %tobool.not, label %if.end16, label %if.then13

if.then13:                                        ; preds = %if.end11
  %3 = load atomic volatile i32, ptr %flags_.i monotonic, align 8
  %and15 = and i32 %3, -32769
  tail call void (ptr, ptr, ...) @_ZN4base13StringAppendFEPNSt7__cxx1112basic_stringIcSt11char_traitsIcESaIcEEEPKcz(ptr noundef %output, ptr noundef nonnull @.str.10, i32 noundef %and15)
  br label %if.end16

if.end16:                                         ; preds = %if.then13, %if.end11
  ret void
}